target datalayout = "e-m:e-p270:32:32-p271:32:32-p272:64:64-i64:64-i128:128-f80:128-n8:16:32:64-S128"
target triple = "x86_64-pc-linux-gnu"

%"class.llvm::DwarfExpression" = type { ptr, i8, ptr, %"class.llvm::SmallVector", i64, i32, i16, %"class.std::optional" }
%"class.llvm::SmallVector" = type { %"class.llvm::SmallVectorImpl", %"struct.llvm::SmallVectorStorage" }
%"class.llvm::SmallVectorImpl" = type { %"class.llvm::SmallVectorTemplateBase" }
%"class.llvm::SmallVectorTemplateBase" = type { %"class.llvm::SmallVectorTemplateCommon" }
%"class.llvm::SmallVectorTemplateCommon" = type { %"class.llvm::SmallVectorBase" }
%"class.llvm::SmallVectorBase" = type { ptr, i32, i32 }
%"struct.llvm::SmallVectorStorage" = type { [32 x i8] }
%"class.std::optional" = type { %"struct.std::_Optional_base" }
%"struct.std::_Optional_base" = type { %"struct.std::_Optional_payload" }
%"struct.std::_Optional_payload" = type { %"struct.std::_Optional_payload_base" }
%"struct.std::_Optional_payload_base" = type { %"union.std::_Optional_payload_base<unsigned char>::_Storage", i8 }
%"union.std::_Optional_payload_base<unsigned char>::_Storage" = type { %"struct.std::_Optional_payload_base<unsigned char>::_Empty_byte" }
%"struct.std::_Optional_payload_base<unsigned char>::_Empty_byte" = type { i8 }

; Function Attrs: mustprogress nounwind uwtable
define dso_local void @_ZN4llvm15DwarfExpression16cancelEntryValueEv(ptr noundef nonnull align 8 dereferenceable(88) %0) #0 align 2 {
  %2 = alloca ptr, align 8
  store ptr %0, ptr %2, align 8
  %3 = load ptr, ptr %2, align 8
  %4 = load ptr, ptr %3, align 8
  %5 = getelementptr inbounds ptr, ptr %4, i64 6
  %6 = load ptr, ptr %5, align 8
  call void %6(ptr noundef nonnull align 8 dereferenceable(88) %3)
  %7 = getelementptr inbounds nuw %"class.llvm::DwarfExpression", ptr %3, i32 0, i32 6
  %8 = load i16, ptr %7, align 4
  %9 = lshr i16 %8, 3
  %10 = and i16 %9, 7
  %11 = zext i16 %10 to i32
  %12 = getelementptr inbounds nuw %"class.llvm::DwarfExpression", ptr %3, i32 0, i32 6
  %13 = trunc i32 %11 to i16
  %14 = load i16, ptr %12, align 4
  %15 = and i16 %13, 7
  %16 = and i16 %14, -8
  %17 = or i16 %16, %15
  store i16 %17, ptr %12, align 4
  %18 = getelementptr inbounds nuw %"class.llvm::DwarfExpression", ptr %3, i32 0, i32 1
  store i8 0, ptr %18, align 8
  ret void
}