; Function Attrs: mustprogress nounwind uwtable
define dso_local void @_ZN4llvm15DwarfExpression16cancelEntryValueEv(ptr noundef nonnull align 8 dereferenceable(88) %0) local_unnamed_addr #0 align 2 {
  %2 = load ptr, ptr %0, align 8
  %3 = getelementptr inbounds i8, ptr %2, i64 48
  %4 = load ptr, ptr %3, align 8
  tail call void %4(ptr noundef nonnull align 8 dereferenceable(88) %0) #13
  %5 = getelementptr inbounds nuw i8, ptr %0, i64 84
  %6 = load i16, ptr %5, align 4
  %7 = lshr i16 %6, 3
  %8 = and i16 %7, 7
  %9 = and i16 %6, -8
  %10 = or disjoint i16 %8, %9
  store i16 %10, ptr %5, align 4
  %11 = getelementptr inbounds nuw i8, ptr %0, i64 8
  store i8 0, ptr %11, align 8
  ret void
}